target datalayout = "e-m:e-p270:32:32-p271:32:32-p272:64:64-i64:64-i128:128-f80:128-n8:16:32:64-S128"
target triple = "x86_64-pc-linux-gnu"

%struct._generic_addr_id_string = type { i32, i32, ptr }

@uds_uat_routine_ids = internal global ptr null, align 8
@uds_uat_routine_id_num = internal global i32 0, align 4
@uds_ht_routine_ids = internal global ptr null, align 8

; Function Attrs: nounwind null_pointer_is_valid sspstrong uwtable
define internal i64 @calc_key(i32 noundef %0, i32 noundef %1) #3 {
  %3 = alloca i32, align 4
  %4 = alloca i32, align 4
  store i32 %0, ptr %3, align 4
  store i32 %1, ptr %4, align 4
  %5 = load i32, ptr %4, align 4
  %6 = zext i32 %5 to i64
  %7 = shl i64 %6, 32
  %8 = load i32, ptr %3, align 4
  %9 = zext i32 %8 to i64
  %10 = or i64 %7, %9
  ret i64 %10
}

; Function Attrs: null_pointer_is_valid sspstrong uwtable
define internal void @reset_update_uds_routine_cb() #0 {
  %1 = load ptr, ptr @uds_ht_routine_ids, align 8
  %2 = icmp ne ptr %1, null
  br i1 %2, label %3, label %5

3:                                                ; preds = %0
  %4 = load ptr, ptr @uds_ht_routine_ids, align 8
  call void @g_hash_table_destroy(ptr noundef %4)
  store ptr null, ptr @uds_ht_routine_ids, align 8
  br label %5

5:                                                ; preds = %3, %0
  ret void
}

; Function Attrs: null_pointer_is_valid sspstrong uwtable
define internal void @post_update_uds_routine_cb() #0 {
  %1 = alloca i32, align 4
  %2 = alloca ptr, align 8
  %3 = alloca i64, align 8
  %4 = alloca i64, align 8
  %5 = alloca ptr, align 8
  %6 = alloca ptr, align 8
  call void @reset_update_uds_routine_cb()
  %7 = call ptr @g_hash_table_new_full(ptr noundef @g_int64_hash, ptr noundef @g_int64_equal, ptr noundef @g_free, ptr noundef null)
  store ptr %7, ptr @uds_ht_routine_ids, align 8
  call void @llvm.lifetime.start.p0(i64 4, ptr %1) #12
  store i32 0, ptr %1, align 4
  br label %8

8:                                                ; preds = %66, %0
  %9 = load i32, ptr %1, align 4
  %10 = load i32, ptr @uds_uat_routine_id_num, align 4
  %11 = icmp ult i32 %9, %10
  br i1 %11, label %13, label %12

12:                                               ; preds = %8
  call void @llvm.lifetime.end.p0(i64 4, ptr %1) #12
  br label %69

13:                                               ; preds = %8
  call void @llvm.lifetime.start.p0(i64 8, ptr %2) #12
  call void @llvm.lifetime.start.p0(i64 8, ptr %3) #12
  store i64 1, ptr %3, align 8
  call void @llvm.lifetime.start.p0(i64 8, ptr %4) #12
  store i64 8, ptr %4, align 8
  call void @llvm.lifetime.start.p0(i64 8, ptr %5) #12
  %14 = load i64, ptr %4, align 8
  %15 = icmp eq i64 %14, 1
  br i1 %15, label %16, label %19

16:                                               ; preds = %13
  %17 = load i64, ptr %3, align 8
  %18 = call noalias ptr @g_malloc(i64 noundef %17) #15
  store ptr %18, ptr %5, align 8
  br label %40

19:                                               ; preds = %13
  %20 = load i64, ptr %3, align 8
  %21 = call i1 @llvm.is.constant.i64(i64 %20)
  br i1 %21, label %22, label %35

22:                                               ; preds = %19
  %23 = load i64, ptr %4, align 8
  %24 = icmp eq i64 %23, 0
  br i1 %24, label %30, label %25

25:                                               ; preds = %22
  %26 = load i64, ptr %3, align 8
  %27 = load i64, ptr %4, align 8
  %28 = udiv i64 -1, %27
  %29 = icmp ule i64 %26, %28
  br i1 %29, label %30, label %35

30:                                               ; preds = %25, %22
  %31 = load i64, ptr %3, align 8
  %32 = load i64, ptr %4, align 8
  %33 = mul i64 %31, %32
  %34 = call noalias ptr @g_malloc(i64 noundef %33) #15
  store ptr %34, ptr %5, align 8
  br label %39

35:                                               ; preds = %25, %19
  %36 = load i64, ptr %3, align 8
  %37 = load i64, ptr %4, align 8
  %38 = call noalias ptr @g_malloc_n(i64 noundef %36, i64 noundef %37) #16
  store ptr %38, ptr %5, align 8
  br label %39

39:                                               ; preds = %35, %30
  br label %40

40:                                               ; preds = %39, %16
  %41 = load ptr, ptr %5, align 8
  store ptr %41, ptr %6, align 8
  call void @llvm.lifetime.end.p0(i64 8, ptr %5) #12
  call void @llvm.lifetime.end.p0(i64 8, ptr %4) #12
  call void @llvm.lifetime.end.p0(i64 8, ptr %3) #12
  %42 = load ptr, ptr %6, align 8
  store ptr %42, ptr %2, align 8
  %43 = load ptr, ptr @uds_uat_routine_ids, align 8
  %44 = load i32, ptr %1, align 4
  %45 = zext i32 %44 to i64
  %46 = getelementptr %struct._generic_addr_id_string, ptr %43, i64 %45
  %47 = getelementptr inbounds nuw %struct._generic_addr_id_string, ptr %46, i32 0, i32 0
  %48 = load i32, ptr %47, align 8
  %49 = load ptr, ptr @uds_uat_routine_ids, align 8
  %50 = load i32, ptr %1, align 4
  %51 = zext i32 %50 to i64
  %52 = getelementptr %struct._generic_addr_id_string, ptr %49, i64 %51
  %53 = getelementptr inbounds nuw %struct._generic_addr_id_string, ptr %52, i32 0, i32 1
  %54 = load i32, ptr %53, align 4
  %55 = call i64 @calc_key(i32 noundef %48, i32 noundef %54)
  %56 = load ptr, ptr %2, align 8
  store i64 %55, ptr %56, align 8
  %57 = load ptr, ptr @uds_ht_routine_ids, align 8
  %58 = load ptr, ptr %2, align 8
  %59 = load ptr, ptr @uds_uat_routine_ids, align 8
  %60 = load i32, ptr %1, align 4
  %61 = zext i32 %60 to i64
  %62 = getelementptr %struct._generic_addr_id_string, ptr %59, i64 %61
  %63 = getelementptr inbounds nuw %struct._generic_addr_id_string, ptr %62, i32 0, i32 2
  %64 = load ptr, ptr %63, align 8
  %65 = call i32 @g_hash_table_insert(ptr noundef %57, ptr noundef %58, ptr noundef %64)
  call void @llvm.lifetime.end.p0(i64 8, ptr %2) #12
  br label %66

66:                                               ; preds = %40
  %67 = load i32, ptr %1, align 4
  %68 = add i32 %67, 1
  store i32 %68, ptr %1, align 4
  br label %8, !llvm.loop !6

69:                                               ; preds = %12
  ret void
}