; Function Attrs: null_pointer_is_valid sspstrong uwtable
define internal void @post_update_uds_routine_cb() #0 {
  %1 = load ptr, ptr @uds_ht_routine_ids, align 8
  %.not.i = icmp eq ptr %1, null
  br i1 %.not.i, label %reset_update_uds_routine_cb.exit, label %2

2:                                                ; preds = %0
  tail call void @g_hash_table_destroy(ptr noundef nonnull %1)
  store ptr null, ptr @uds_ht_routine_ids, align 8
  br label %reset_update_uds_routine_cb.exit

reset_update_uds_routine_cb.exit:                 ; preds = %0, %2
  %3 = tail call ptr @g_hash_table_new_full(ptr noundef nonnull @g_int64_hash, ptr noundef nonnull @g_int64_equal, ptr noundef nonnull @g_free, ptr noundef null)
  store ptr %3, ptr @uds_ht_routine_ids, align 8
  %4 = load i32, ptr @uds_uat_routine_id_num, align 4
  %.not = icmp eq i32 %4, 0
  br i1 %.not, label %._crit_edge, label %.lr.ph

._crit_edge:                                      ; preds = %.lr.ph, %reset_update_uds_routine_cb.exit
  ret void

.lr.ph:                                           ; preds = %reset_update_uds_routine_cb.exit, %.lr.ph
  %indvars.iv = phi i64 [ %indvars.iv.next, %.lr.ph ], [ 0, %reset_update_uds_routine_cb.exit ]
  %5 = tail call noalias dereferenceable_or_null(8) ptr @g_malloc(i64 noundef 8) #13
  %6 = load ptr, ptr @uds_uat_routine_ids, align 8
  %7 = getelementptr %struct._generic_addr_id_string, ptr %6, i64 %indvars.iv
  %8 = load i64, ptr %7, align 8
  store i64 %8, ptr %5, align 8
  %9 = load ptr, ptr @uds_ht_routine_ids, align 8
  %10 = getelementptr %struct._generic_addr_id_string, ptr %6, i64 %indvars.iv, i32 2
  %11 = load ptr, ptr %10, align 8
  %12 = tail call i32 @g_hash_table_insert(ptr noundef %9, ptr noundef %5, ptr noundef %11)
  %indvars.iv.next = add nuw nsw i64 %indvars.iv, 1
  %13 = load i32, ptr @uds_uat_routine_id_num, align 4
  %14 = zext i32 %13 to i64
  %15 = icmp samesign ult i64 %indvars.iv.next, %14
  br i1 %15, label %.lr.ph, label %._crit_edge, !llvm.loop !6
}